; Function Attrs: nounwind uwtable
define noundef i32 @H5I_dump_ids_for_type(i32 noundef %0) local_unnamed_addr #0 {
  %2 = alloca i8, align 1
  %3 = load i8, ptr @H5I_init_g, align 1, !tbaa !3, !range !7, !noundef !8
  %4 = trunc nuw i8 %3 to i1
  %5 = load i8, ptr @H5_libterm_g, align 1, !range !7
  %6 = trunc nuw i8 %5 to i1
  %7 = select i1 %4, i1 true, i1 %6
  br i1 %7, label %8, label %.thread, !prof !9

.thread:                                          ; preds = %1
  store i8 1, ptr @H5I_init_g, align 1, !tbaa !3
  br label %11

8:                                                ; preds = %1
  %9 = xor i1 %6, true
  %10 = select i1 %4, i1 true, i1 %9
  br i1 %10, label %11, label %.loopexit, !prof !10

11:                                               ; preds = %.thread, %8
  %12 = load ptr, ptr @stderr, align 8, !tbaa !11
  %13 = tail call i32 (ptr, ptr, ...) @fprintf(ptr noundef %12, ptr noundef nonnull @.str, i32 noundef %0) #5
  %14 = sext i32 %0 to i64
  %15 = getelementptr inbounds [127 x ptr], ptr @H5I_type_info_array_g, i64 0, i64 %14
  %16 = load ptr, ptr %15, align 8, !tbaa !14
  %.not = icmp eq ptr %16, null
  %17 = load ptr, ptr @stderr, align 8, !tbaa !11
  br i1 %.not, label %100, label %18

18:                                               ; preds = %11
  %19 = getelementptr inbounds nuw i8, ptr %16, i64 8
  %20 = load i32, ptr %19, align 8, !tbaa !16
  %21 = tail call i32 (ptr, ptr, ...) @fprintf(ptr noundef %17, ptr noundef nonnull @.str.1, i32 noundef %20) #5
  %22 = load ptr, ptr @stderr, align 8, !tbaa !11
  %23 = load ptr, ptr %16, align 8, !tbaa !22
  %24 = getelementptr inbounds nuw i8, ptr %23, i64 8
  %25 = load i32, ptr %24, align 8, !tbaa !23
  %26 = tail call i32 (ptr, ptr, ...) @fprintf(ptr noundef %22, ptr noundef nonnull @.str.2, i32 noundef %25) #5
  %27 = load ptr, ptr @stderr, align 8, !tbaa !11
  %28 = getelementptr inbounds nuw i8, ptr %16, i64 16
  %29 = load i64, ptr %28, align 8, !tbaa !25
  %30 = tail call i32 (ptr, ptr, ...) @fprintf(ptr noundef %27, ptr noundef nonnull @.str.3, i64 noundef %29) #5
  %31 = load ptr, ptr @stderr, align 8, !tbaa !11
  %32 = getelementptr inbounds nuw i8, ptr %16, i64 24
  %33 = load i64, ptr %32, align 8, !tbaa !26
  %34 = tail call i32 (ptr, ptr, ...) @fprintf(ptr noundef %31, ptr noundef nonnull @.str.4, i64 noundef %33) #5
  %35 = load i64, ptr %28, align 8, !tbaa !25
  %.not17 = icmp eq i64 %35, 0
  br i1 %.not17, label %.loopexit, label %36

36:                                               ; preds = %18
  %37 = load ptr, ptr @stderr, align 8, !tbaa !11
  %38 = tail call i64 @fwrite(ptr nonnull @.str.5, i64 11, i64 1, ptr %37) #6
  %39 = load ptr, ptr @stderr, align 8, !tbaa !11
  %40 = tail call i64 @fwrite(ptr nonnull @.str.6, i64 18, i64 1, ptr %39) #6
  %41 = getelementptr inbounds nuw i8, ptr %16, i64 40
  %42 = load ptr, ptr %41, align 8, !tbaa !27
  %.not18 = icmp eq ptr %42, null
  br i1 %.not18, label %.loopexit, label %.lr.ph

.lr.ph:                                           ; preds = %36, %H5I__id_dump_cb.exit
  %.sink28 = phi ptr [ %44, %H5I__id_dump_cb.exit ], [ %42, %36 ]
  %43 = getelementptr inbounds nuw i8, ptr %.sink28, i64 72
  %44 = load ptr, ptr %43, align 8, !tbaa !28
  call void @llvm.lifetime.start.p0(i64 1, ptr nonnull %2) #7
  %45 = load i8, ptr @H5I_init_g, align 1, !tbaa !3, !range !7, !noundef !8
  %46 = trunc nuw i8 %45 to i1
  %47 = load i8, ptr @H5_libterm_g, align 1, !range !7
  %48 = trunc nuw i8 %47 to i1
  %49 = xor i1 %48, true
  %50 = select i1 %46, i1 true, i1 %49
  br i1 %50, label %51, label %H5I__id_dump_cb.exit, !prof !9

51:                                               ; preds = %.lr.ph
  %52 = load ptr, ptr @stderr, align 8, !tbaa !11
  %53 = load i64, ptr %.sink28, align 8, !tbaa !33
  %54 = call i32 (ptr, ptr, ...) @fprintf(ptr noundef %52, ptr noundef nonnull @.str.8, i64 noundef %53) #5
  %55 = load ptr, ptr @stderr, align 8, !tbaa !11
  %56 = getelementptr inbounds nuw i8, ptr %.sink28, i64 8
  %57 = load i32, ptr %56, align 8, !tbaa !34
  %58 = call i32 (ptr, ptr, ...) @fprintf(ptr noundef %55, ptr noundef nonnull @.str.9, i32 noundef %57) #5
  %59 = load ptr, ptr @stderr, align 8, !tbaa !11
  %60 = getelementptr inbounds nuw i8, ptr %.sink28, i64 16
  %61 = load ptr, ptr %60, align 8, !tbaa !35
  %62 = call i32 (ptr, ptr, ...) @fprintf(ptr noundef %59, ptr noundef nonnull @.str.10, ptr noundef %61) #5
  %63 = load ptr, ptr @stderr, align 8, !tbaa !11
  %64 = getelementptr inbounds nuw i8, ptr %.sink28, i64 48
  %65 = load i8, ptr %64, align 8, !tbaa !36, !range !7, !noundef !8
  %66 = zext nneg i8 %65 to i32
  %67 = call i32 (ptr, ptr, ...) @fprintf(ptr noundef %63, ptr noundef nonnull @.str.11, i32 noundef %66) #5
  switch i32 %0, label %H5I__id_dump_cb.exit [
    i32 2, label %68
    i32 5, label %75
    i32 3, label %82
  ]

68:                                               ; preds = %51
  %69 = load ptr, ptr %60, align 8, !tbaa !35
  store i8 0, ptr %2, align 1, !tbaa !3
  %70 = call i32 @H5VL_object_is_native(ptr noundef %69, ptr noundef nonnull %2) #7
  %71 = load i8, ptr %2, align 1, !tbaa !3, !range !7, !noundef !8
  %72 = trunc nuw i8 %71 to i1
  br i1 %72, label %73, label %H5I__id_dump_cb.exit

73:                                               ; preds = %68
  %74 = call ptr @H5G_nameof(ptr noundef null) #7
  br label %86

75:                                               ; preds = %51
  %76 = load ptr, ptr %60, align 8, !tbaa !35
  store i8 0, ptr %2, align 1, !tbaa !3
  %77 = call i32 @H5VL_object_is_native(ptr noundef %76, ptr noundef nonnull %2) #7
  %78 = load i8, ptr %2, align 1, !tbaa !3, !range !7, !noundef !8
  %79 = trunc nuw i8 %78 to i1
  br i1 %79, label %80, label %H5I__id_dump_cb.exit

80:                                               ; preds = %75
  %81 = call ptr @H5D_nameof(ptr noundef null) #7
  br label %86

82:                                               ; preds = %51
  %83 = load ptr, ptr %60, align 8, !tbaa !35
  %84 = call ptr @H5T_get_actual_type(ptr noundef %83) #7
  %85 = call ptr @H5T_nameof(ptr noundef %84) #7
  br label %86

86:                                               ; preds = %82, %80, %73
  %.1.i = phi ptr [ %85, %82 ], [ %74, %73 ], [ %81, %80 ]
  %.not.i = icmp eq ptr %.1.i, null
  br i1 %.not.i, label %H5I__id_dump_cb.exit, label %87

87:                                               ; preds = %86
  %88 = getelementptr inbounds nuw i8, ptr %.1.i, i64 8
  %89 = load ptr, ptr %88, align 8, !tbaa !37
  %.not22.i = icmp eq ptr %89, null
  br i1 %.not22.i, label %94, label %90

90:                                               ; preds = %87
  %91 = load ptr, ptr @stderr, align 8, !tbaa !11
  %92 = call ptr @H5RS_get_str(ptr noundef nonnull %89) #7
  %93 = call i32 (ptr, ptr, ...) @fprintf(ptr noundef %91, ptr noundef nonnull @.str.12, ptr noundef %92) #5
  br label %94

94:                                               ; preds = %90, %87
  %95 = load ptr, ptr %.1.i, align 8, !tbaa !40
  %.not23.i = icmp eq ptr %95, null
  br i1 %.not23.i, label %H5I__id_dump_cb.exit, label %96

96:                                               ; preds = %94
  %97 = load ptr, ptr @stderr, align 8, !tbaa !11
  %98 = call ptr @H5RS_get_str(ptr noundef nonnull %95) #7
  %99 = call i32 (ptr, ptr, ...) @fprintf(ptr noundef %97, ptr noundef nonnull @.str.13, ptr noundef %98) #5
  br label %H5I__id_dump_cb.exit

H5I__id_dump_cb.exit:                             ; preds = %.lr.ph, %51, %68, %75, %86, %94, %96
  call void @llvm.lifetime.end.p0(i64 1, ptr nonnull %2) #7
  %.not20 = icmp eq ptr %44, null
  br i1 %.not20, label %.loopexit, label %.lr.ph, !llvm.loop !41

100:                                              ; preds = %11
  %101 = tail call i64 @fwrite(ptr nonnull @.str.7, i64 56, i64 1, ptr %17) #6
  br label %.loopexit

.loopexit:                                        ; preds = %H5I__id_dump_cb.exit, %36, %18, %100, %8
  ret i32 0
}